target datalayout = "e-m:e-p270:32:32-p271:32:32-p272:64:64-i64:64-i128:128-f80:128-n8:16:32:64-S128"
target triple = "x86_64-pc-linux-gnu"

%class.QString = type { ptr }
%class.QColor = type <{ i32, %"union.QColor::CT", [2 x i8] }>
%"union.QColor::CT" = type { %struct.anon }
%struct.anon = type { i16, i16, i16, i16, i16 }
%class.RichParameter = type { ptr, %class.QString, ptr, %class.QString, %class.QString, i8, i8, %class.QString }

; Function Attrs: mustprogress uwtable
define noundef zeroext i1 @_ZN9RichColoreqERK13RichParameter(ptr noundef nonnull align 8 dereferenceable(56) %0, ptr noundef nonnull align 8 dereferenceable(56) %1) unnamed_addr #2 align 2 {
  %3 = alloca ptr, align 8
  %4 = alloca ptr, align 8
  %5 = alloca %class.QColor, align 4
  %6 = alloca %class.QColor, align 4
  store ptr %0, ptr %3, align 8
  store ptr %1, ptr %4, align 8
  %7 = load ptr, ptr %3, align 8
  %8 = load ptr, ptr %4, align 8
  %9 = call noundef nonnull align 8 dereferenceable(8) ptr @_ZNK13RichParameter5valueEv(ptr noundef nonnull align 8 dereferenceable(56) %8)
  %10 = load ptr, ptr %9, align 8
  %11 = getelementptr inbounds ptr, ptr %10, i64 17
  %12 = load ptr, ptr %11, align 8
  %13 = call noundef zeroext i1 %12(ptr noundef nonnull align 8 dereferenceable(8) %9)
  br i1 %13, label %14, label %30

14:                                               ; preds = %2
  %15 = getelementptr inbounds %class.RichParameter, ptr %7, i32 0, i32 1
  %16 = load ptr, ptr %4, align 8
  %17 = call noundef nonnull align 8 dereferenceable(8) ptr @_ZNK13RichParameter4nameEv(ptr noundef nonnull align 8 dereferenceable(56) %16)
  %18 = call noundef zeroext i1 @_ZeqRK7QStringS1_(ptr noundef nonnull align 8 dereferenceable(8) %15, ptr noundef nonnull align 8 dereferenceable(8) %17) #5
  br i1 %18, label %19, label %30

19:                                               ; preds = %14
  %20 = call noundef nonnull align 8 dereferenceable(8) ptr @_ZNK13RichParameter5valueEv(ptr noundef nonnull align 8 dereferenceable(56) %7)
  %21 = load ptr, ptr %20, align 8
  %22 = getelementptr inbounds ptr, ptr %21, i64 9
  %23 = load ptr, ptr %22, align 8
  call void %23(ptr dead_on_unwind writable sret(%class.QColor) align 4 %5, ptr noundef nonnull align 8 dereferenceable(8) %20)
  %24 = load ptr, ptr %4, align 8
  %25 = call noundef nonnull align 8 dereferenceable(8) ptr @_ZNK13RichParameter5valueEv(ptr noundef nonnull align 8 dereferenceable(56) %24)
  %26 = load ptr, ptr %25, align 8
  %27 = getelementptr inbounds ptr, ptr %26, i64 9
  %28 = load ptr, ptr %27, align 8
  call void %28(ptr dead_on_unwind writable sret(%class.QColor) align 4 %6, ptr noundef nonnull align 8 dereferenceable(8) %25)
  %29 = call noundef zeroext i1 @_ZNK6QColoreqERKS_(ptr noundef nonnull align 4 dereferenceable(14) %5, ptr noundef nonnull align 4 dereferenceable(14) %6) #5
  br label %30

30:                                               ; preds = %19, %14, %2
  %31 = phi i1 [ false, %14 ], [ false, %2 ], [ %29, %19 ]
  ret i1 %31
}