; Function Attrs: mustprogress uwtable
define noundef zeroext i1 @_ZN9RichColoreqERK13RichParameter(ptr noundef nonnull align 8 dereferenceable(56) %0, ptr noundef nonnull align 8 dereferenceable(56) %1) unnamed_addr #2 align 2 {
  %3 = alloca %class.QColor, align 4
  %4 = alloca %class.QColor, align 4
  %5 = tail call noundef nonnull align 8 dereferenceable(8) ptr @_ZNK13RichParameter5valueEv(ptr noundef nonnull align 8 dereferenceable(56) %1)
  %6 = load ptr, ptr %5, align 8
  %7 = getelementptr inbounds i8, ptr %6, i64 136
  %8 = load ptr, ptr %7, align 8
  %9 = tail call noundef zeroext i1 %8(ptr noundef nonnull align 8 dereferenceable(8) %5)
  br i1 %9, label %10, label %24

10:                                               ; preds = %2
  %11 = getelementptr inbounds i8, ptr %0, i64 8
  %12 = tail call noundef nonnull align 8 dereferenceable(8) ptr @_ZNK13RichParameter4nameEv(ptr noundef nonnull align 8 dereferenceable(56) %1)
  %13 = tail call noundef zeroext i1 @_ZeqRK7QStringS1_(ptr noundef nonnull align 8 dereferenceable(8) %11, ptr noundef nonnull align 8 dereferenceable(8) %12) #9
  br i1 %13, label %14, label %24

14:                                               ; preds = %10
  %15 = tail call noundef nonnull align 8 dereferenceable(8) ptr @_ZNK13RichParameter5valueEv(ptr noundef nonnull align 8 dereferenceable(56) %0)
  %16 = load ptr, ptr %15, align 8
  %17 = getelementptr inbounds i8, ptr %16, i64 72
  %18 = load ptr, ptr %17, align 8
  call void %18(ptr dead_on_unwind nonnull writable sret(%class.QColor) align 4 %3, ptr noundef nonnull align 8 dereferenceable(8) %15)
  %19 = call noundef nonnull align 8 dereferenceable(8) ptr @_ZNK13RichParameter5valueEv(ptr noundef nonnull align 8 dereferenceable(56) %1)
  %20 = load ptr, ptr %19, align 8
  %21 = getelementptr inbounds i8, ptr %20, i64 72
  %22 = load ptr, ptr %21, align 8
  call void %22(ptr dead_on_unwind nonnull writable sret(%class.QColor) align 4 %4, ptr noundef nonnull align 8 dereferenceable(8) %19)
  %23 = call noundef zeroext i1 @_ZNK6QColoreqERKS_(ptr noundef nonnull align 4 dereferenceable(14) %3, ptr noundef nonnull align 4 dereferenceable(14) %4) #9
  br label %24

24:                                               ; preds = %14, %10, %2
  %25 = phi i1 [ false, %10 ], [ false, %2 ], [ %23, %14 ]
  ret i1 %25
}